target datalayout = "e-m:e-p270:32:32-p271:32:32-p272:64:64-i64:64-i128:128-f80:128-n8:16:32:64-S128"
target triple = "x86_64-pc-linux-gnu"

%"class.duckdb_snappy::internal::WorkingMemory" = type { ptr, i64, ptr, ptr, ptr }

; Function Attrs: inlinehint mustprogress nounwind uwtable
define linkonce_odr noundef i32 @_ZN13duckdb_snappy4Bits16Log2FloorNonZeroEj(i32 noundef %0) #3 comdat align 2 {
  %2 = alloca i32, align 4
  store i32 %0, ptr %2, align 4, !tbaa !12
  %3 = load i32, ptr %2, align 4, !tbaa !12
  %4 = call i32 @llvm.ctlz.i32(i32 %3, i1 true)
  %5 = xor i32 31, %4
  ret i32 %5
}

; Function Attrs: inlinehint mustprogress uwtable
define linkonce_odr noundef i32 @_ZN13duckdb_snappy4Bits9Log2FloorEj(i32 noundef %0) #7 comdat align 2 {
  %2 = alloca i32, align 4
  store i32 %0, ptr %2, align 4, !tbaa !12
  %3 = load i32, ptr %2, align 4, !tbaa !12
  %4 = icmp eq i32 %3, 0
  br i1 %4, label %5, label %6

5:                                                ; preds = %1
  br label %9

6:                                                ; preds = %1
  %7 = load i32, ptr %2, align 4, !tbaa !12
  %8 = call noundef i32 @_ZN13duckdb_snappy4Bits16Log2FloorNonZeroEj(i32 noundef %7)
  br label %9

9:                                                ; preds = %6, %5
  %10 = phi i32 [ -1, %5 ], [ %8, %6 ]
  ret i32 %10
}

; Function Attrs: mustprogress uwtable
define internal noundef i32 @_ZN13duckdb_snappy12_GLOBAL__N_118CalculateTableSizeEj(i32 noundef %0) #1 {
  %2 = alloca i32, align 4
  %3 = alloca i32, align 4
  store i32 %0, ptr %3, align 4, !tbaa !12
  %4 = load i32, ptr %3, align 4, !tbaa !12
  %5 = zext i32 %4 to i64
  %6 = icmp ugt i64 %5, 32768
  br i1 %6, label %7, label %8

7:                                                ; preds = %1
  store i32 32768, ptr %2, align 4
  br label %18

8:                                                ; preds = %1
  %9 = load i32, ptr %3, align 4, !tbaa !12
  %10 = zext i32 %9 to i64
  %11 = icmp ult i64 %10, 256
  br i1 %11, label %12, label %13

12:                                               ; preds = %8
  store i32 256, ptr %2, align 4
  br label %18

13:                                               ; preds = %8
  %14 = load i32, ptr %3, align 4, !tbaa !12
  %15 = sub i32 %14, 1
  %16 = call noundef i32 @_ZN13duckdb_snappy4Bits9Log2FloorEj(i32 noundef %15)
  %17 = shl i32 2, %16
  store i32 %17, ptr %2, align 4
  br label %18

18:                                               ; preds = %13, %12, %7
  %19 = load i32, ptr %2, align 4
  ret i32 %19
}

; Function Attrs: mustprogress uwtable
define noundef ptr @_ZNK13duckdb_snappy8internal13WorkingMemory12GetHashTableEmPi(ptr noundef nonnull align 8 dereferenceable(40) %0, i64 noundef %1, ptr noundef %2) #1 align 2 {
  %4 = alloca ptr, align 8
  %5 = alloca i64, align 8
  %6 = alloca ptr, align 8
  %7 = alloca i64, align 8
  store ptr %0, ptr %4, align 8, !tbaa !17
  store i64 %1, ptr %5, align 8, !tbaa !3
  store ptr %2, ptr %6, align 8, !tbaa !14
  %8 = load ptr, ptr %4, align 8
  call void @llvm.lifetime.start.p0(i64 8, ptr %7) #17
  %9 = load i64, ptr %5, align 8, !tbaa !3
  %10 = trunc i64 %9 to i32
  %11 = call noundef i32 @_ZN13duckdb_snappy12_GLOBAL__N_118CalculateTableSizeEj(i32 noundef %10)
  %12 = zext i32 %11 to i64
  store i64 %12, ptr %7, align 8, !tbaa !3
  %13 = getelementptr inbounds nuw %"class.duckdb_snappy::internal::WorkingMemory", ptr %8, i32 0, i32 2
  %14 = load ptr, ptr %13, align 8, !tbaa !23
  %15 = load i64, ptr %7, align 8, !tbaa !3
  %16 = mul i64 %15, 2
  call void @llvm.memset.p0.i64(ptr align 2 %14, i8 0, i64 %16, i1 false)
  %17 = load i64, ptr %7, align 8, !tbaa !3
  %18 = trunc i64 %17 to i32
  %19 = load ptr, ptr %6, align 8, !tbaa !14
  store i32 %18, ptr %19, align 4, !tbaa !12
  %20 = getelementptr inbounds nuw %"class.duckdb_snappy::internal::WorkingMemory", ptr %8, i32 0, i32 2
  %21 = load ptr, ptr %20, align 8, !tbaa !23
  call void @llvm.lifetime.end.p0(i64 8, ptr %7) #17
  ret ptr %21
}