; Function Attrs: mustprogress nofree norecurse nosync nounwind willreturn memory(write, argmem: readwrite, inaccessiblemem: none) uwtable
define noundef ptr @_ZNK13duckdb_snappy8internal13WorkingMemory12GetHashTableEmPi(ptr noundef nonnull readonly align 8 captures(none) dereferenceable(40) %0, i64 noundef %1, ptr noundef writeonly captures(none) initializes((0, 4)) %2) local_unnamed_addr #7 align 2 {
  %4 = trunc i64 %1 to i32
  %5 = icmp ugt i32 %4, 32768
  br i1 %5, label %_ZN13duckdb_snappy12_GLOBAL__N_118CalculateTableSizeEj.exit, label %6

6:                                                ; preds = %3
  %7 = icmp samesign ult i32 %4, 256
  br i1 %7, label %_ZN13duckdb_snappy12_GLOBAL__N_118CalculateTableSizeEj.exit, label %8

8:                                                ; preds = %6
  %9 = add nsw i32 %4, -1
  %10 = tail call range(i32 0, 33) i32 @llvm.ctlz.i32(i32 %9, i1 true)
  %11 = xor i32 %10, 31
  %12 = shl nuw nsw i32 2, %11
  br label %_ZN13duckdb_snappy12_GLOBAL__N_118CalculateTableSizeEj.exit

_ZN13duckdb_snappy12_GLOBAL__N_118CalculateTableSizeEj.exit: ; preds = %3, %6, %8
  %.0.i = phi i32 [ %12, %8 ], [ 32768, %3 ], [ 256, %6 ]
  %13 = getelementptr inbounds nuw i8, ptr %0, i64 16
  %14 = load ptr, ptr %13, align 8, !tbaa !14
  %15 = shl nuw nsw i32 %.0.i, 1
  %16 = zext nneg i32 %15 to i64
  tail call void @llvm.memset.p0.i64(ptr noundef nonnull align 2 dereferenceable(1) %14, i8 0, i64 %16, i1 false)
  store i32 %.0.i, ptr %2, align 4, !tbaa !17
  %17 = load ptr, ptr %13, align 8, !tbaa !14
  ret ptr %17
}